target datalayout = "e-m:e-p270:32:32-p271:32:32-p272:64:64-i64:64-i128:128-f80:128-n8:16:32:64-S128"
target triple = "x86_64-pc-linux-gnu"

%struct.prolog_state = type { ptr, i32, i32, i32, i32, i32 }
%struct.encoding = type { [4 x ptr], [2 x ptr], ptr, ptr, ptr, ptr, ptr, ptr, ptr, ptr, ptr, ptr, i32, i8, i8 }

@KW_DOCTYPE = internal constant [8 x i8] c"DOCTYPE\00", align 1

; Function Attrs: nounwind uwtable
define internal i32 @common(ptr noundef %0, i32 noundef %1) #0 {
  %3 = alloca i32, align 4
  %4 = alloca ptr, align 8
  %5 = alloca i32, align 4
  store ptr %0, ptr %4, align 8, !tbaa !3
  store i32 %1, ptr %5, align 4, !tbaa !14
  %6 = load ptr, ptr %4, align 8, !tbaa !3
  %7 = getelementptr inbounds nuw %struct.prolog_state, ptr %6, i32 0, i32 4
  %8 = load i32, ptr %7, align 4, !tbaa !11
  %9 = icmp ne i32 %8, 0
  br i1 %9, label %14, label %10

10:                                               ; preds = %2
  %11 = load i32, ptr %5, align 4, !tbaa !14
  %12 = icmp eq i32 %11, 28
  br i1 %12, label %13, label %14

13:                                               ; preds = %10
  store i32 59, ptr %3, align 4
  br label %17

14:                                               ; preds = %10, %2
  %15 = load ptr, ptr %4, align 8, !tbaa !3
  %16 = getelementptr inbounds nuw %struct.prolog_state, ptr %15, i32 0, i32 0
  store ptr @error, ptr %16, align 8, !tbaa !8
  store i32 -1, ptr %3, align 4
  br label %17

17:                                               ; preds = %14, %13
  %18 = load i32, ptr %3, align 4
  ret i32 %18
}

; Function Attrs: nounwind uwtable
define internal i32 @prolog1(ptr noundef %0, i32 noundef %1, ptr noundef %2, ptr noundef %3, ptr noundef %4) #0 {
  %6 = alloca i32, align 4
  %7 = alloca ptr, align 8
  %8 = alloca i32, align 4
  %9 = alloca ptr, align 8
  %10 = alloca ptr, align 8
  %11 = alloca ptr, align 8
  store ptr %0, ptr %7, align 8, !tbaa !3
  store i32 %1, ptr %8, align 4, !tbaa !14
  store ptr %2, ptr %9, align 8, !tbaa !15
  store ptr %3, ptr %10, align 8, !tbaa !15
  store ptr %4, ptr %11, align 8, !tbaa !17
  %12 = load i32, ptr %8, align 4, !tbaa !14
  switch i32 %12, label %39 [
    i32 15, label %13
    i32 11, label %14
    i32 13, label %15
    i32 14, label %16
    i32 16, label %17
    i32 29, label %36
  ]

13:                                               ; preds = %5
  store i32 0, ptr %6, align 4
  br label %43

14:                                               ; preds = %5
  store i32 55, ptr %6, align 4
  br label %43

15:                                               ; preds = %5
  store i32 56, ptr %6, align 4
  br label %43

16:                                               ; preds = %5
  store i32 0, ptr %6, align 4
  br label %43

17:                                               ; preds = %5
  %18 = load ptr, ptr %11, align 8, !tbaa !17
  %19 = getelementptr inbounds nuw %struct.encoding, ptr %18, i32 0, i32 2
  %20 = load ptr, ptr %19, align 8, !tbaa !19
  %21 = load ptr, ptr %11, align 8, !tbaa !17
  %22 = load ptr, ptr %9, align 8, !tbaa !15
  %23 = load ptr, ptr %11, align 8, !tbaa !17
  %24 = getelementptr inbounds nuw %struct.encoding, ptr %23, i32 0, i32 12
  %25 = load i32, ptr %24, align 8, !tbaa !21
  %26 = mul i32 2, %25
  %27 = sext i32 %26 to i64
  %28 = getelementptr i8, ptr %22, i64 %27
  %29 = load ptr, ptr %10, align 8, !tbaa !15
  %30 = call i32 %20(ptr noundef %21, ptr noundef %28, ptr noundef %29, ptr noundef @KW_DOCTYPE)
  %31 = icmp ne i32 %30, 0
  br i1 %31, label %33, label %32

32:                                               ; preds = %17
  br label %39

33:                                               ; preds = %17
  %34 = load ptr, ptr %7, align 8, !tbaa !3
  %35 = getelementptr inbounds nuw %struct.prolog_state, ptr %34, i32 0, i32 0
  store ptr @doctype0, ptr %35, align 8, !tbaa !8
  store i32 3, ptr %6, align 4
  br label %43

36:                                               ; preds = %5
  %37 = load ptr, ptr %7, align 8, !tbaa !3
  %38 = getelementptr inbounds nuw %struct.prolog_state, ptr %37, i32 0, i32 0
  store ptr @error, ptr %38, align 8, !tbaa !8
  store i32 2, ptr %6, align 4
  br label %43

39:                                               ; preds = %5, %32
  %40 = load ptr, ptr %7, align 8, !tbaa !3
  %41 = load i32, ptr %8, align 4, !tbaa !14
  %42 = call i32 @common(ptr noundef %40, i32 noundef %41)
  store i32 %42, ptr %6, align 4
  br label %43

43:                                               ; preds = %39, %36, %33, %16, %15, %14, %13
  %44 = load i32, ptr %6, align 4
  ret i32 %44
}