; Function Attrs: nounwind uwtable
define internal range(i32 -1, 60) i32 @prolog1(ptr noundef captures(none) %0, i32 noundef %1, ptr noundef %2, ptr noundef %3, ptr noundef %4) #1 {
  switch i32 %1, label %19 [
    i32 15, label %common.exit
    i32 11, label %6
    i32 13, label %7
    i32 14, label %common.exit
    i32 16, label %8
    i32 29, label %18
  ]

6:                                                ; preds = %5
  br label %common.exit

7:                                                ; preds = %5
  br label %common.exit

8:                                                ; preds = %5
  %9 = getelementptr inbounds nuw i8, ptr %4, i64 48
  %10 = load ptr, ptr %9, align 8, !tbaa !12
  %11 = getelementptr inbounds nuw i8, ptr %4, i64 128
  %12 = load i32, ptr %11, align 8, !tbaa !14
  %13 = shl i32 %12, 1
  %14 = sext i32 %13 to i64
  %15 = getelementptr i8, ptr %2, i64 %14
  %16 = tail call i32 %10(ptr noundef %4, ptr noundef %15, ptr noundef %3, ptr noundef nonnull @KW_DOCTYPE) #5
  %.not = icmp eq i32 %16, 0
  br i1 %.not, label %.thread, label %17

17:                                               ; preds = %8
  store ptr @doctype0, ptr %0, align 8, !tbaa !3
  br label %common.exit

18:                                               ; preds = %5
  store ptr @error, ptr %0, align 8, !tbaa !3
  br label %common.exit

19:                                               ; preds = %5
  %20 = getelementptr inbounds nuw i8, ptr %0, i64 20
  %21 = load i32, ptr %20, align 4, !tbaa !9
  %22 = icmp eq i32 %21, 0
  %23 = icmp eq i32 %1, 28
  %or.cond.i = and i1 %23, %22
  br i1 %or.cond.i, label %common.exit, label %.thread

.thread:                                          ; preds = %8, %19
  store ptr @error, ptr %0, align 8, !tbaa !3
  br label %common.exit

common.exit:                                      ; preds = %.thread, %19, %5, %5, %18, %17, %7, %6
  %.0 = phi i32 [ 2, %18 ], [ 3, %17 ], [ 56, %7 ], [ 55, %6 ], [ 0, %5 ], [ 0, %5 ], [ -1, %.thread ], [ 59, %19 ]
  ret i32 %.0
}